target datalayout = "e-m:e-p270:32:32-p271:32:32-p272:64:64-i64:64-i128:128-f80:128-n8:16:32:64-S128"
target triple = "x86_64-pc-linux-gnu"

; Function Attrs: nounwind uwtable
define void @ff_copy_and_dup(ptr noundef %0, ptr noundef %1, i32 noundef %2) #0 {
  %4 = alloca ptr, align 8
  %5 = alloca ptr, align 8
  %6 = alloca i32, align 4
  store ptr %0, ptr %4, align 8, !tbaa !4
  store ptr %1, ptr %5, align 8, !tbaa !4
  store i32 %2, ptr %6, align 4, !tbaa !9
  %7 = load i32, ptr %6, align 4, !tbaa !9
  %8 = sub nsw i32 146, %7
  %9 = load ptr, ptr %5, align 8, !tbaa !4
  %10 = sext i32 %8 to i64
  %11 = getelementptr inbounds i16, ptr %9, i64 %10
  store ptr %11, ptr %5, align 8, !tbaa !4
  %12 = load ptr, ptr %4, align 8, !tbaa !4
  %13 = load ptr, ptr %5, align 8, !tbaa !4
  %14 = load i32, ptr %6, align 4, !tbaa !9
  %15 = icmp sgt i32 40, %14
  br i1 %15, label %16, label %18

16:                                               ; preds = %3
  %17 = load i32, ptr %6, align 4, !tbaa !9
  br label %19

18:                                               ; preds = %3
  br label %19

19:                                               ; preds = %18, %16
  %20 = phi i32 [ %17, %16 ], [ 40, %18 ]
  %21 = sext i32 %20 to i64
  %22 = mul i64 %21, 2
  call void @llvm.memcpy.p0.p0.i64(ptr align 2 %12, ptr align 2 %13, i64 %22, i1 false)
  %23 = load i32, ptr %6, align 4, !tbaa !9
  %24 = icmp slt i32 %23, 40
  br i1 %24, label %25, label %35

25:                                               ; preds = %19
  %26 = load ptr, ptr %4, align 8, !tbaa !4
  %27 = load i32, ptr %6, align 4, !tbaa !9
  %28 = sext i32 %27 to i64
  %29 = getelementptr inbounds i16, ptr %26, i64 %28
  %30 = load ptr, ptr %5, align 8, !tbaa !4
  %31 = load i32, ptr %6, align 4, !tbaa !9
  %32 = sub nsw i32 40, %31
  %33 = sext i32 %32 to i64
  %34 = mul i64 %33, 2
  call void @llvm.memcpy.p0.p0.i64(ptr align 2 %29, ptr align 2 %30, i64 %34, i1 false)
  br label %35

35:                                               ; preds = %25, %19
  ret void
}