; Function Attrs: mustprogress nofree norecurse nosync nounwind willreturn memory(argmem: readwrite) uwtable
define void @ff_copy_and_dup(ptr noundef writeonly captures(none) %0, ptr noundef readonly captures(none) %1, i32 noundef %2) local_unnamed_addr #0 {
  %4 = sub nsw i32 146, %2
  %5 = sext i32 %4 to i64
  %6 = getelementptr inbounds i16, ptr %1, i64 %5
  %7 = icmp slt i32 %2, 40
  %8 = tail call i32 @llvm.smin.i32(i32 %2, i32 40)
  %9 = sext i32 %8 to i64
  %10 = shl nsw i64 %9, 1
  tail call void @llvm.memcpy.p0.p0.i64(ptr align 2 %0, ptr align 2 %6, i64 %10, i1 false)
  br i1 %7, label %11, label %17

11:                                               ; preds = %3
  %12 = sext i32 %2 to i64
  %13 = getelementptr inbounds i16, ptr %0, i64 %12
  %14 = sub nsw i32 40, %2
  %15 = zext nneg i32 %14 to i64
  %16 = shl nuw nsw i64 %15, 1
  tail call void @llvm.memcpy.p0.p0.i64(ptr align 2 %13, ptr nonnull align 2 %6, i64 %16, i1 false)
  br label %17

17:                                               ; preds = %11, %3
  ret void
}